target datalayout = "e-m:e-p270:32:32-p271:32:32-p272:64:64-i64:64-i128:128-f80:128-n8:16:32:64-S128"
target triple = "x86_64-pc-linux-gnu"

%struct.Ses_Store_t_ = type { i32, i32, i32, i32, i32, i32, [1024 x ptr], ptr, ptr, ptr, i64, [9 x i64], i64, [9 x i64], i64, [9 x i64], i64, [9 x i64], i64, [9 x i64], i64, [9 x i64], i64, [9 x i64], i64, i64, i64, i64, i64, i64, i64, i64, i64, i64 }
%struct.Ses_TruthEntry_t_ = type { [4 x i64], i32, ptr, ptr }
%struct.Ses_TimesEntry_t_ = type { [8 x i32], i32, ptr, ptr }

@.str.46 = private unnamed_addr constant [3 x i8] c"wb\00", align 1
@.str.47 = private unnamed_addr constant [35 x i8] c"cannot open file \22%s\22 for writing\0A\00", align 1

; Function Attrs: nounwind uwtable
define internal void @Ses_StoreWrite(ptr noundef %0, ptr noundef %1, i32 noundef %2, i32 noundef %3, i32 noundef %4, i32 noundef %5) #0 {
  %7 = alloca ptr, align 8
  %8 = alloca ptr, align 8
  %9 = alloca i32, align 4
  %10 = alloca i32, align 4
  %11 = alloca i32, align 4
  %12 = alloca i32, align 4
  %13 = alloca i32, align 4
  %14 = alloca i8, align 1
  %15 = alloca i64, align 8
  %16 = alloca ptr, align 8
  %17 = alloca ptr, align 8
  %18 = alloca ptr, align 8
  %19 = alloca i32, align 4
  store ptr %0, ptr %7, align 8, !tbaa !3
  store ptr %1, ptr %8, align 8, !tbaa !14
  store i32 %2, ptr %9, align 4, !tbaa !10
  store i32 %3, ptr %10, align 4, !tbaa !10
  store i32 %4, ptr %11, align 4, !tbaa !10
  store i32 %5, ptr %12, align 4, !tbaa !10
  call void @llvm.lifetime.start.p0(i64 4, ptr %13) #14
  call void @llvm.lifetime.start.p0(i64 1, ptr %14) #14
  store i8 0, ptr %14, align 1, !tbaa !42
  call void @llvm.lifetime.start.p0(i64 8, ptr %15) #14
  store i64 0, ptr %15, align 8, !tbaa !37
  call void @llvm.lifetime.start.p0(i64 8, ptr %16) #14
  call void @llvm.lifetime.start.p0(i64 8, ptr %17) #14
  call void @llvm.lifetime.start.p0(i64 8, ptr %18) #14
  %20 = load ptr, ptr %8, align 8, !tbaa !14
  %21 = call noalias ptr @fopen(ptr noundef %20, ptr noundef @.str.46)
  store ptr %21, ptr %18, align 8, !tbaa !54
  %22 = load ptr, ptr %18, align 8, !tbaa !54
  %23 = icmp eq ptr %22, null
  br i1 %23, label %24, label %27

24:                                               ; preds = %6
  %25 = load ptr, ptr %8, align 8, !tbaa !14
  %26 = call i32 (ptr, ...) @printf(ptr noundef @.str.47, ptr noundef %25)
  store i32 1, ptr %19, align 4
  br label %231

27:                                               ; preds = %6
  %28 = load i32, ptr %9, align 4, !tbaa !10
  %29 = icmp ne i32 %28, 0
  br i1 %29, label %30, label %36

30:                                               ; preds = %27
  %31 = load ptr, ptr %7, align 8, !tbaa !3
  %32 = getelementptr inbounds nuw %struct.Ses_Store_t_, ptr %31, i32 0, i32 18
  %33 = load i64, ptr %32, align 8, !tbaa !38
  %34 = load i64, ptr %15, align 8, !tbaa !37
  %35 = add i64 %34, %33
  store i64 %35, ptr %15, align 8, !tbaa !37
  br label %36

36:                                               ; preds = %30, %27
  %37 = load i32, ptr %10, align 4, !tbaa !10
  %38 = icmp ne i32 %37, 0
  br i1 %38, label %39, label %45

39:                                               ; preds = %36
  %40 = load ptr, ptr %7, align 8, !tbaa !3
  %41 = getelementptr inbounds nuw %struct.Ses_Store_t_, ptr %40, i32 0, i32 20
  %42 = load i64, ptr %41, align 8, !tbaa !36
  %43 = load i64, ptr %15, align 8, !tbaa !37
  %44 = add i64 %43, %42
  store i64 %44, ptr %15, align 8, !tbaa !37
  br label %45

45:                                               ; preds = %39, %36
  %46 = load i32, ptr %11, align 4, !tbaa !10
  %47 = icmp ne i32 %46, 0
  br i1 %47, label %48, label %54

48:                                               ; preds = %45
  %49 = load ptr, ptr %7, align 8, !tbaa !3
  %50 = getelementptr inbounds nuw %struct.Ses_Store_t_, ptr %49, i32 0, i32 12
  %51 = load i64, ptr %50, align 8, !tbaa !40
  %52 = load i64, ptr %15, align 8, !tbaa !37
  %53 = add i64 %52, %51
  store i64 %53, ptr %15, align 8, !tbaa !37
  br label %54

54:                                               ; preds = %48, %45
  %55 = load i32, ptr %12, align 4, !tbaa !10
  %56 = icmp ne i32 %55, 0
  br i1 %56, label %57, label %63

57:                                               ; preds = %54
  %58 = load ptr, ptr %7, align 8, !tbaa !3
  %59 = getelementptr inbounds nuw %struct.Ses_Store_t_, ptr %58, i32 0, i32 14
  %60 = load i64, ptr %59, align 8, !tbaa !39
  %61 = load i64, ptr %15, align 8, !tbaa !37
  %62 = add i64 %61, %60
  store i64 %62, ptr %15, align 8, !tbaa !37
  br label %63

63:                                               ; preds = %57, %54
  %64 = load ptr, ptr %18, align 8, !tbaa !54
  %65 = call i64 @fwrite(ptr noundef %15, i64 noundef 8, i64 noundef 1, ptr noundef %64)
  store i32 0, ptr %13, align 4, !tbaa !10
  br label %66

66:                                               ; preds = %225, %63
  %67 = load i32, ptr %13, align 4, !tbaa !10
  %68 = icmp slt i32 %67, 1024
  br i1 %68, label %69, label %228

69:                                               ; preds = %66
  %70 = load ptr, ptr %7, align 8, !tbaa !3
  %71 = getelementptr inbounds nuw %struct.Ses_Store_t_, ptr %70, i32 0, i32 6
  %72 = load i32, ptr %13, align 4, !tbaa !10
  %73 = sext i32 %72 to i64
  %74 = getelementptr inbounds [1024 x ptr], ptr %71, i64 0, i64 %73
  %75 = load ptr, ptr %74, align 8, !tbaa !16
  %76 = icmp ne ptr %75, null
  br i1 %76, label %77, label %224

77:                                               ; preds = %69
  %78 = load ptr, ptr %7, align 8, !tbaa !3
  %79 = getelementptr inbounds nuw %struct.Ses_Store_t_, ptr %78, i32 0, i32 6
  %80 = load i32, ptr %13, align 4, !tbaa !10
  %81 = sext i32 %80 to i64
  %82 = getelementptr inbounds [1024 x ptr], ptr %79, i64 0, i64 %81
  %83 = load ptr, ptr %82, align 8, !tbaa !16
  store ptr %83, ptr %16, align 8, !tbaa !16
  br label %84

84:                                               ; preds = %219, %77
  %85 = load ptr, ptr %16, align 8, !tbaa !16
  %86 = icmp ne ptr %85, null
  br i1 %86, label %87, label %223

87:                                               ; preds = %84
  %88 = load ptr, ptr %16, align 8, !tbaa !16
  %89 = getelementptr inbounds nuw %struct.Ses_TruthEntry_t_, ptr %88, i32 0, i32 3
  %90 = load ptr, ptr %89, align 8, !tbaa !23
  store ptr %90, ptr %17, align 8, !tbaa !24
  br label %91

91:                                               ; preds = %215, %158, %141, %124, %107, %87
  %92 = load ptr, ptr %17, align 8, !tbaa !24
  %93 = icmp ne ptr %92, null
  br i1 %93, label %94, label %219

94:                                               ; preds = %91
  %95 = load i32, ptr %9, align 4, !tbaa !10
  %96 = icmp ne i32 %95, 0
  br i1 %96, label %111, label %97

97:                                               ; preds = %94
  %98 = load ptr, ptr %17, align 8, !tbaa !24
  %99 = getelementptr inbounds nuw %struct.Ses_TimesEntry_t_, ptr %98, i32 0, i32 3
  %100 = load ptr, ptr %99, align 8, !tbaa !28
  %101 = icmp ne ptr %100, null
  br i1 %101, label %102, label %111

102:                                              ; preds = %97
  %103 = load ptr, ptr %17, align 8, !tbaa !24
  %104 = getelementptr inbounds nuw %struct.Ses_TimesEntry_t_, ptr %103, i32 0, i32 1
  %105 = load i32, ptr %104, align 8, !tbaa !29
  %106 = icmp ne i32 %105, 0
  br i1 %106, label %111, label %107

107:                                              ; preds = %102
  %108 = load ptr, ptr %17, align 8, !tbaa !24
  %109 = getelementptr inbounds nuw %struct.Ses_TimesEntry_t_, ptr %108, i32 0, i32 2
  %110 = load ptr, ptr %109, align 8, !tbaa !25
  store ptr %110, ptr %17, align 8, !tbaa !24
  br label %91, !llvm.loop !55

111:                                              ; preds = %102, %97, %94
  %112 = load i32, ptr %10, align 4, !tbaa !10
  %113 = icmp ne i32 %112, 0
  br i1 %113, label %128, label %114

114:                                              ; preds = %111
  %115 = load ptr, ptr %17, align 8, !tbaa !24
  %116 = getelementptr inbounds nuw %struct.Ses_TimesEntry_t_, ptr %115, i32 0, i32 3
  %117 = load ptr, ptr %116, align 8, !tbaa !28
  %118 = icmp ne ptr %117, null
  br i1 %118, label %119, label %128

119:                                              ; preds = %114
  %120 = load ptr, ptr %17, align 8, !tbaa !24
  %121 = getelementptr inbounds nuw %struct.Ses_TimesEntry_t_, ptr %120, i32 0, i32 1
  %122 = load i32, ptr %121, align 8, !tbaa !29
  %123 = icmp ne i32 %122, 0
  br i1 %123, label %124, label %128

124:                                              ; preds = %119
  %125 = load ptr, ptr %17, align 8, !tbaa !24
  %126 = getelementptr inbounds nuw %struct.Ses_TimesEntry_t_, ptr %125, i32 0, i32 2
  %127 = load ptr, ptr %126, align 8, !tbaa !25
  store ptr %127, ptr %17, align 8, !tbaa !24
  br label %91, !llvm.loop !55

128:                                              ; preds = %119, %114, %111
  %129 = load i32, ptr %11, align 4, !tbaa !10
  %130 = icmp ne i32 %129, 0
  br i1 %130, label %145, label %131

131:                                              ; preds = %128
  %132 = load ptr, ptr %17, align 8, !tbaa !24
  %133 = getelementptr inbounds nuw %struct.Ses_TimesEntry_t_, ptr %132, i32 0, i32 3
  %134 = load ptr, ptr %133, align 8, !tbaa !28
  %135 = icmp ne ptr %134, null
  br i1 %135, label %145, label %136

136:                                              ; preds = %131
  %137 = load ptr, ptr %17, align 8, !tbaa !24
  %138 = getelementptr inbounds nuw %struct.Ses_TimesEntry_t_, ptr %137, i32 0, i32 1
  %139 = load i32, ptr %138, align 8, !tbaa !29
  %140 = icmp ne i32 %139, 0
  br i1 %140, label %145, label %141

141:                                              ; preds = %136
  %142 = load ptr, ptr %17, align 8, !tbaa !24
  %143 = getelementptr inbounds nuw %struct.Ses_TimesEntry_t_, ptr %142, i32 0, i32 2
  %144 = load ptr, ptr %143, align 8, !tbaa !25
  store ptr %144, ptr %17, align 8, !tbaa !24
  br label %91, !llvm.loop !55

145:                                              ; preds = %136, %131, %128
  %146 = load i32, ptr %12, align 4, !tbaa !10
  %147 = icmp ne i32 %146, 0
  br i1 %147, label %162, label %148

148:                                              ; preds = %145
  %149 = load ptr, ptr %17, align 8, !tbaa !24
  %150 = getelementptr inbounds nuw %struct.Ses_TimesEntry_t_, ptr %149, i32 0, i32 3
  %151 = load ptr, ptr %150, align 8, !tbaa !28
  %152 = icmp ne ptr %151, null
  br i1 %152, label %162, label %153

153:                                              ; preds = %148
  %154 = load ptr, ptr %17, align 8, !tbaa !24
  %155 = getelementptr inbounds nuw %struct.Ses_TimesEntry_t_, ptr %154, i32 0, i32 1
  %156 = load i32, ptr %155, align 8, !tbaa !29
  %157 = icmp ne i32 %156, 0
  br i1 %157, label %158, label %162

158:                                              ; preds = %153
  %159 = load ptr, ptr %17, align 8, !tbaa !24
  %160 = getelementptr inbounds nuw %struct.Ses_TimesEntry_t_, ptr %159, i32 0, i32 2
  %161 = load ptr, ptr %160, align 8, !tbaa !25
  store ptr %161, ptr %17, align 8, !tbaa !24
  br label %91, !llvm.loop !55

162:                                              ; preds = %153, %148, %145
  %163 = load ptr, ptr %16, align 8, !tbaa !16
  %164 = getelementptr inbounds nuw %struct.Ses_TruthEntry_t_, ptr %163, i32 0, i32 0
  %165 = getelementptr inbounds [4 x i64], ptr %164, i64 0, i64 0
  %166 = load ptr, ptr %18, align 8, !tbaa !54
  %167 = call i64 @fwrite(ptr noundef %165, i64 noundef 8, i64 noundef 4, ptr noundef %166)
  %168 = load ptr, ptr %16, align 8, !tbaa !16
  %169 = getelementptr inbounds nuw %struct.Ses_TruthEntry_t_, ptr %168, i32 0, i32 1
  %170 = load ptr, ptr %18, align 8, !tbaa !54
  %171 = call i64 @fwrite(ptr noundef %169, i64 noundef 4, i64 noundef 1, ptr noundef %170)
  %172 = load ptr, ptr %17, align 8, !tbaa !24
  %173 = getelementptr inbounds nuw %struct.Ses_TimesEntry_t_, ptr %172, i32 0, i32 0
  %174 = getelementptr inbounds [8 x i32], ptr %173, i64 0, i64 0
  %175 = load ptr, ptr %18, align 8, !tbaa !54
  %176 = call i64 @fwrite(ptr noundef %174, i64 noundef 4, i64 noundef 8, ptr noundef %175)
  %177 = load ptr, ptr %17, align 8, !tbaa !24
  %178 = getelementptr inbounds nuw %struct.Ses_TimesEntry_t_, ptr %177, i32 0, i32 1
  %179 = load ptr, ptr %18, align 8, !tbaa !54
  %180 = call i64 @fwrite(ptr noundef %178, i64 noundef 4, i64 noundef 1, ptr noundef %179)
  %181 = load ptr, ptr %17, align 8, !tbaa !24
  %182 = getelementptr inbounds nuw %struct.Ses_TimesEntry_t_, ptr %181, i32 0, i32 3
  %183 = load ptr, ptr %182, align 8, !tbaa !28
  %184 = icmp ne ptr %183, null
  br i1 %184, label %185, label %208

185:                                              ; preds = %162
  %186 = load ptr, ptr %17, align 8, !tbaa !24
  %187 = getelementptr inbounds nuw %struct.Ses_TimesEntry_t_, ptr %186, i32 0, i32 3
  %188 = load ptr, ptr %187, align 8, !tbaa !28
  %189 = load ptr, ptr %17, align 8, !tbaa !24
  %190 = getelementptr inbounds nuw %struct.Ses_TimesEntry_t_, ptr %189, i32 0, i32 3
  %191 = load ptr, ptr %190, align 8, !tbaa !28
  %192 = getelementptr inbounds i8, ptr %191, i64 2
  %193 = load i8, ptr %192, align 1, !tbaa !42
  %194 = sext i8 %193 to i32
  %195 = mul nsw i32 4, %194
  %196 = add nsw i32 3, %195
  %197 = add nsw i32 %196, 2
  %198 = load ptr, ptr %17, align 8, !tbaa !24
  %199 = getelementptr inbounds nuw %struct.Ses_TimesEntry_t_, ptr %198, i32 0, i32 3
  %200 = load ptr, ptr %199, align 8, !tbaa !28
  %201 = getelementptr inbounds i8, ptr %200, i64 0
  %202 = load i8, ptr %201, align 1, !tbaa !42
  %203 = sext i8 %202 to i32
  %204 = add nsw i32 %197, %203
  %205 = sext i32 %204 to i64
  %206 = load ptr, ptr %18, align 8, !tbaa !54
  %207 = call i64 @fwrite(ptr noundef %188, i64 noundef 1, i64 noundef %205, ptr noundef %206)
  br label %215

208:                                              ; preds = %162
  %209 = load ptr, ptr %18, align 8, !tbaa !54
  %210 = call i64 @fwrite(ptr noundef %14, i64 noundef 1, i64 noundef 1, ptr noundef %209)
  %211 = load ptr, ptr %18, align 8, !tbaa !54
  %212 = call i64 @fwrite(ptr noundef %14, i64 noundef 1, i64 noundef 1, ptr noundef %211)
  %213 = load ptr, ptr %18, align 8, !tbaa !54
  %214 = call i64 @fwrite(ptr noundef %14, i64 noundef 1, i64 noundef 1, ptr noundef %213)
  br label %215

215:                                              ; preds = %208, %185
  %216 = load ptr, ptr %17, align 8, !tbaa !24
  %217 = getelementptr inbounds nuw %struct.Ses_TimesEntry_t_, ptr %216, i32 0, i32 2
  %218 = load ptr, ptr %217, align 8, !tbaa !25
  store ptr %218, ptr %17, align 8, !tbaa !24
  br label %91, !llvm.loop !55

219:                                              ; preds = %91
  %220 = load ptr, ptr %16, align 8, !tbaa !16
  %221 = getelementptr inbounds nuw %struct.Ses_TruthEntry_t_, ptr %220, i32 0, i32 2
  %222 = load ptr, ptr %221, align 8, !tbaa !18
  store ptr %222, ptr %16, align 8, !tbaa !16
  br label %84, !llvm.loop !56

223:                                              ; preds = %84
  br label %224

224:                                              ; preds = %223, %69
  br label %225

225:                                              ; preds = %224
  %226 = load i32, ptr %13, align 4, !tbaa !10
  %227 = add nsw i32 %226, 1
  store i32 %227, ptr %13, align 4, !tbaa !10
  br label %66, !llvm.loop !57

228:                                              ; preds = %66
  %229 = load ptr, ptr %18, align 8, !tbaa !54
  %230 = call i32 @fclose(ptr noundef %229)
  store i32 0, ptr %19, align 4
  br label %231

231:                                              ; preds = %228, %24
  call void @llvm.lifetime.end.p0(i64 8, ptr %18) #14
  call void @llvm.lifetime.end.p0(i64 8, ptr %17) #14
  call void @llvm.lifetime.end.p0(i64 8, ptr %16) #14
  call void @llvm.lifetime.end.p0(i64 8, ptr %15) #14
  call void @llvm.lifetime.end.p0(i64 1, ptr %14) #14
  call void @llvm.lifetime.end.p0(i64 4, ptr %13) #14
  %232 = load i32, ptr %19, align 4
  switch i32 %232, label %234 [
    i32 0, label %233
    i32 1, label %233
  ]

233:                                              ; preds = %231, %231
  ret void

234:                                              ; preds = %231
  unreachable
}