; Function Attrs: nofree nounwind uwtable
define internal fastcc void @Ses_StoreWrite(ptr noundef readonly captures(none) %0, ptr noundef nonnull %1) unnamed_addr #3 {
  %3 = alloca i64, align 8
  call void @llvm.lifetime.start.p0(i64 8, ptr nonnull %3) #29
  %4 = tail call noalias ptr @fopen(ptr noundef nonnull %1, ptr noundef nonnull @.str.46)
  %5 = icmp eq ptr %4, null
  br i1 %5, label %6, label %8

6:                                                ; preds = %2
  %7 = tail call i32 (ptr, ...) @printf(ptr noundef nonnull dereferenceable(1) @.str.47, ptr noundef nonnull %1)
  br label %47

8:                                                ; preds = %2
  %9 = getelementptr inbounds nuw i8, ptr %0, i64 8560
  %10 = load i64, ptr %9, align 8, !tbaa !37
  store i64 %10, ptr %3, align 8, !tbaa !3
  %11 = call i64 @fwrite(ptr noundef nonnull %3, i64 noundef 8, i64 noundef 1, ptr noundef nonnull %4)
  %12 = getelementptr inbounds nuw i8, ptr %0, i64 24
  br label %13

13:                                               ; preds = %8, %.loopexit
  %indvars.iv = phi i64 [ 0, %8 ], [ %indvars.iv.next, %.loopexit ]
  %14 = getelementptr inbounds nuw [1024 x ptr], ptr %12, i64 0, i64 %indvars.iv
  %15 = load ptr, ptr %14, align 8, !tbaa !11
  %.not = icmp eq ptr %15, null
  br i1 %.not, label %.loopexit, label %.preheader

.preheader:                                       ; preds = %13, %._crit_edge
  %.05679 = phi ptr [ %44, %._crit_edge ], [ %15, %13 ]
  %16 = getelementptr inbounds nuw i8, ptr %.05679, i64 48
  %.05576 = load ptr, ptr %16, align 8, !tbaa !20
  %.not6177 = icmp eq ptr %.05576, null
  br i1 %.not6177, label %._crit_edge, label %.lr.ph

.lr.ph:                                           ; preds = %.preheader
  %17 = getelementptr inbounds nuw i8, ptr %.05679, i64 32
  br label %18

18:                                               ; preds = %.lr.ph, %.backedge
  %.05578 = phi ptr [ %.05576, %.lr.ph ], [ %.055, %.backedge ]
  %19 = getelementptr inbounds nuw i8, ptr %.05578, i64 48
  %20 = load ptr, ptr %19, align 8, !tbaa !23
  %.not62 = icmp eq ptr %20, null
  br i1 %.not62, label %.backedge, label %21

21:                                               ; preds = %18
  %22 = getelementptr inbounds nuw i8, ptr %.05578, i64 32
  %23 = load i32, ptr %22, align 8, !tbaa !26
  %.not63 = icmp eq i32 %23, 0
  br i1 %.not63, label %24, label %.backedge

.backedge:                                        ; preds = %18, %31, %42, %21
  %.055.in.be = getelementptr inbounds nuw i8, ptr %.05578, i64 40
  %.055 = load ptr, ptr %.055.in.be, align 8, !tbaa !20
  %.not61 = icmp eq ptr %.055, null
  br i1 %.not61, label %._crit_edge, label %18, !llvm.loop !50

24:                                               ; preds = %21
  %25 = tail call i64 @fwrite(ptr noundef nonnull %.05679, i64 noundef 8, i64 noundef 4, ptr noundef nonnull %4)
  %26 = tail call i64 @fwrite(ptr noundef nonnull %17, i64 noundef 4, i64 noundef 1, ptr noundef nonnull %4)
  %27 = tail call i64 @fwrite(ptr noundef nonnull %.05578, i64 noundef 4, i64 noundef 8, ptr noundef nonnull %4)
  %28 = getelementptr inbounds nuw i8, ptr %.05578, i64 32
  %29 = tail call i64 @fwrite(ptr noundef nonnull %28, i64 noundef 4, i64 noundef 1, ptr noundef nonnull %4)
  %30 = load ptr, ptr %19, align 8, !tbaa !23
  %.not68 = icmp eq ptr %30, null
  br i1 %.not68, label %42, label %31

31:                                               ; preds = %24
  %32 = getelementptr inbounds nuw i8, ptr %30, i64 2
  %33 = load i8, ptr %32, align 1, !tbaa !39
  %34 = sext i8 %33 to i32
  %35 = shl nsw i32 %34, 2
  %36 = add nsw i32 %35, 5
  %37 = load i8, ptr %30, align 1, !tbaa !39
  %38 = sext i8 %37 to i32
  %39 = add nsw i32 %36, %38
  %40 = sext i32 %39 to i64
  %41 = tail call i64 @fwrite(ptr noundef nonnull %30, i64 noundef 1, i64 noundef %40, ptr noundef nonnull %4)
  br label %.backedge

42:                                               ; preds = %24
  %fputc = tail call i32 @fputc(i32 0, ptr nonnull %4)
  %fputc71 = tail call i32 @fputc(i32 0, ptr nonnull %4)
  %fputc74 = tail call i32 @fputc(i32 0, ptr nonnull %4)
  br label %.backedge

._crit_edge:                                      ; preds = %.backedge, %.preheader
  %43 = getelementptr inbounds nuw i8, ptr %.05679, i64 40
  %44 = load ptr, ptr %43, align 8, !tbaa !19
  %.not60 = icmp eq ptr %44, null
  br i1 %.not60, label %.loopexit, label %.preheader, !llvm.loop !51

.loopexit:                                        ; preds = %._crit_edge, %13
  %indvars.iv.next = add nuw nsw i64 %indvars.iv, 1
  %exitcond.not = icmp eq i64 %indvars.iv.next, 1024
  br i1 %exitcond.not, label %45, label %13, !llvm.loop !52

45:                                               ; preds = %.loopexit
  %46 = tail call i32 @fclose(ptr noundef nonnull %4)
  br label %47

47:                                               ; preds = %45, %6
  call void @llvm.lifetime.end.p0(i64 8, ptr nonnull %3) #29
  ret void
}